; Function Attrs: mustprogress nounwind uwtable
define dso_local void @_ZNK4llvm26StackSafetyInfoWrapperPass5printERNS_11raw_ostreamEPKNS_6ModuleE(ptr noundef nonnull align 8 dereferenceable(80) %0, ptr noundef nonnull align 8 dereferenceable(48) %1, ptr readnone captures(none) %2) unnamed_addr #0 align 2 {
  %4 = getelementptr inbounds nuw i8, ptr %0, i64 32
  %5 = tail call noundef nonnull align 8 dereferenceable(104) ptr @_ZNK4llvm15StackSafetyInfo7getInfoEv(ptr noundef nonnull align 8 dereferenceable(48) %4)
  %6 = load ptr, ptr %4, align 8
  %7 = tail call { ptr, i64 } @_ZNK4llvm5Value7getNameEv(ptr noundef nonnull align 8 dereferenceable(24) %6) #25
  %8 = extractvalue { ptr, i64 } %7, 0
  %9 = extractvalue { ptr, i64 } %7, 1
  %10 = load ptr, ptr %4, align 8
  tail call fastcc void @_ZNK12_GLOBAL__N_112FunctionInfoIN4llvm11GlobalValueEE5printERNS1_11raw_ostreamENS1_9StringRefEPKNS1_8FunctionE(ptr noundef nonnull align 8 dereferenceable(100) %5, ptr noundef nonnull align 8 dereferenceable(48) %1, ptr %8, i64 %9, ptr noundef %10)
  %11 = getelementptr inbounds nuw i8, ptr %1, i64 24
  %12 = load ptr, ptr %11, align 8
  %13 = getelementptr inbounds nuw i8, ptr %1, i64 32
  %14 = load ptr, ptr %13, align 8
  %15 = icmp eq ptr %12, %14
  br i1 %15, label %16, label %18

16:                                               ; preds = %3
  %17 = tail call noundef nonnull align 8 dereferenceable(48) ptr @_ZN4llvm11raw_ostream5writeEPKcm(ptr noundef nonnull align 8 dereferenceable(48) %1, ptr noundef nonnull @.str.42, i64 noundef 1) #25
  br label %_ZNK4llvm15StackSafetyInfo5printERNS_11raw_ostreamE.exit

18:                                               ; preds = %3
  store i8 10, ptr %14, align 1
  %19 = load ptr, ptr %13, align 8
  %20 = getelementptr inbounds nuw i8, ptr %19, i64 1
  store ptr %20, ptr %13, align 8
  br label %_ZNK4llvm15StackSafetyInfo5printERNS_11raw_ostreamE.exit

_ZNK4llvm15StackSafetyInfo5printERNS_11raw_ostreamE.exit: ; preds = %16, %18
  ret void
}